	.file	"input.c"
	.text
	.globl	function
	.type	function, @function
function:
.LFB0:
	.cfi_startproc
	endbr64
	pushq	%rbp
	.cfi_def_cfa_offset 16
	.cfi_offset 6, -16
	movq	%rsp, %rbp
	.cfi_def_cfa_register 6
	movl	%edi, %edx
	movl	%esi, %eax
	movb	%dl, -20(%rbp)
	movb	%al, -24(%rbp)
	movzbl	-20(%rbp), %eax
	leal	(%rax,%rax), %ecx
	movzbl	-24(%rbp), %edx
	movl	%edx, %eax
	sall	$2, %eax
	addl	%edx, %eax
	addl	%ecx, %eax
	movb	%al, -1(%rbp)
	movzbl	-1(%rbp), %eax
	popq	%rbp
	.cfi_def_cfa 7, 8
	ret
	.cfi_endproc
.LFE0:
	.size	function, .-function
	.globl	main
	.type	main, @function
main:
.LFB1:
	.cfi_startproc
	endbr64
	pushq	%rbp
	.cfi_def_cfa_offset 16
	.cfi_offset 6, -16
	movq	%rsp, %rbp
	.cfi_def_cfa_register 6
	subq	$16, %rsp
	movb	$98, -3(%rbp)
	movb	$99, -2(%rbp)
	movsbl	-2(%rbp), %edx
	movsbl	-3(%rbp), %eax
	movl	%edx, %esi
	movl	%eax, %edi
	call	function
	movb	%al, -1(%rbp)
	movsbl	-1(%rbp), %eax
	leave
	.cfi_def_cfa 7, 8
	ret
	.cfi_endproc
.LFE1:
	.size	main, .-main
	.ident	"GCC: (Ubuntu 9.3.0-17ubuntu1~20.04) 9.3.0"
	.section	.note.GNU-stack,"",@progbits
	.section	.note.gnu.property,"a"
	.align 8
	.long	 1f - 0f
	.long	 4f - 1f
	.long	 5
0:
	.string	 "GNU"
1:
	.align 8
	.long	 0xc0000002
	.long	 3f - 2f
2:
	.long	 0x3
3:
	.align 8
4:
